target datalayout = "e-m:e-p270:32:32-p271:32:32-p272:64:64-i64:64-i128:128-f80:128-n8:16:32:64-S128"
target triple = "x86_64-pc-linux-gnu"

%struct.puny_test = type { [50 x i32], ptr }

@.str.5 = private unnamed_addr constant [32 x i8] c"../openssl/test/punycode_test.c\00", align 1
@.str.6 = private unnamed_addr constant [71 x i8] c"ossl_punycode_decode(tc->encoded, strlen(tc->encoded), buffer, &bsize)\00", align 1
@.str.7 = private unnamed_addr constant [7 x i8] c"buffer\00", align 1
@.str.8 = private unnamed_addr constant [8 x i8] c"tc->raw\00", align 1

; Function Attrs: nounwind uwtable
define internal i32 @test_punycode(i32 noundef %0) #0 {
  %2 = alloca i32, align 4
  %3 = alloca i32, align 4
  %4 = alloca ptr, align 8
  %5 = alloca [50 x i32], align 16
  %6 = alloca i32, align 4
  %7 = alloca i64, align 8
  %8 = alloca i32, align 4
  store i32 %0, ptr %3, align 4, !tbaa !4
  call void @llvm.lifetime.start.p0(i64 8, ptr %4) #7
  %9 = load i32, ptr %3, align 4, !tbaa !4
  %10 = sext i32 %9 to i64
  %11 = getelementptr inbounds %struct.puny_test, ptr @puny_cases, i64 %10
  store ptr %11, ptr %4, align 8, !tbaa !8
  call void @llvm.lifetime.start.p0(i64 200, ptr %5) #7
  call void @llvm.lifetime.start.p0(i64 4, ptr %6) #7
  store i32 50, ptr %6, align 4, !tbaa !4
  call void @llvm.lifetime.start.p0(i64 8, ptr %7) #7
  %12 = load ptr, ptr %4, align 8, !tbaa !8
  %13 = getelementptr inbounds nuw %struct.puny_test, ptr %12, i32 0, i32 1
  %14 = load ptr, ptr %13, align 8, !tbaa !11
  %15 = load ptr, ptr %4, align 8, !tbaa !8
  %16 = getelementptr inbounds nuw %struct.puny_test, ptr %15, i32 0, i32 1
  %17 = load ptr, ptr %16, align 8, !tbaa !11
  %18 = call i64 @strlen(ptr noundef %17) #8
  %19 = getelementptr inbounds [50 x i32], ptr %5, i64 0, i64 0
  %20 = call i32 @ossl_punycode_decode(ptr noundef %14, i64 noundef %18, ptr noundef %19, ptr noundef %6)
  %21 = icmp ne i32 %20, 0
  %22 = zext i1 %21 to i32
  %23 = call i32 @test_true(ptr noundef @.str.5, i32 noundef 161, ptr noundef @.str.6, i32 noundef %22)
  %24 = icmp ne i32 %23, 0
  br i1 %24, label %26, label %25

25:                                               ; preds = %1
  store i32 0, ptr %2, align 4
  store i32 1, ptr %8, align 4
  br label %56

26:                                               ; preds = %1
  store i64 0, ptr %7, align 8, !tbaa !14
  br label %27

27:                                               ; preds = %39, %26
  %28 = load i64, ptr %7, align 8, !tbaa !14
  %29 = icmp ult i64 %28, 50
  br i1 %29, label %30, label %42

30:                                               ; preds = %27
  %31 = load ptr, ptr %4, align 8, !tbaa !8
  %32 = getelementptr inbounds nuw %struct.puny_test, ptr %31, i32 0, i32 0
  %33 = load i64, ptr %7, align 8, !tbaa !14
  %34 = getelementptr inbounds nuw [50 x i32], ptr %32, i64 0, i64 %33
  %35 = load i32, ptr %34, align 4, !tbaa !4
  %36 = icmp eq i32 %35, 0
  br i1 %36, label %37, label %38

37:                                               ; preds = %30
  br label %42

38:                                               ; preds = %30
  br label %39

39:                                               ; preds = %38
  %40 = load i64, ptr %7, align 8, !tbaa !14
  %41 = add i64 %40, 1
  store i64 %41, ptr %7, align 8, !tbaa !14
  br label %27, !llvm.loop !16

42:                                               ; preds = %37, %27
  %43 = getelementptr inbounds [50 x i32], ptr %5, i64 0, i64 0
  %44 = load i32, ptr %6, align 4, !tbaa !4
  %45 = zext i32 %44 to i64
  %46 = mul i64 %45, 4
  %47 = load ptr, ptr %4, align 8, !tbaa !8
  %48 = getelementptr inbounds nuw %struct.puny_test, ptr %47, i32 0, i32 0
  %49 = getelementptr inbounds [50 x i32], ptr %48, i64 0, i64 0
  %50 = load i64, ptr %7, align 8, !tbaa !14
  %51 = mul i64 %50, 4
  %52 = call i32 @test_mem_eq(ptr noundef @.str.5, i32 noundef 167, ptr noundef @.str.7, ptr noundef @.str.8, ptr noundef %43, i64 noundef %46, ptr noundef %49, i64 noundef %51)
  %53 = icmp ne i32 %52, 0
  br i1 %53, label %55, label %54

54:                                               ; preds = %42
  store i32 0, ptr %2, align 4
  store i32 1, ptr %8, align 4
  br label %56

55:                                               ; preds = %42
  store i32 1, ptr %2, align 4
  store i32 1, ptr %8, align 4
  br label %56

56:                                               ; preds = %55, %54, %25
  call void @llvm.lifetime.end.p0(i64 8, ptr %7) #7
  call void @llvm.lifetime.end.p0(i64 4, ptr %6) #7
  call void @llvm.lifetime.end.p0(i64 200, ptr %5) #7
  call void @llvm.lifetime.end.p0(i64 8, ptr %4) #7
  %57 = load i32, ptr %2, align 4
  ret i32 %57
}