; Function Attrs: nounwind uwtable
define internal range(i32 0, 2) i32 @test_punycode(i32 noundef %0) #0 {
  %2 = alloca [50 x i32], align 16
  %3 = alloca i32, align 4
  %4 = sext i32 %0 to i64
  %5 = getelementptr inbounds %struct.puny_test, ptr @puny_cases, i64 %4
  call void @llvm.lifetime.start.p0(i64 200, ptr nonnull %2) #6
  call void @llvm.lifetime.start.p0(i64 4, ptr nonnull %3) #6
  store i32 50, ptr %3, align 4, !tbaa !4
  %6 = getelementptr inbounds nuw i8, ptr %5, i64 200
  %7 = load ptr, ptr %6, align 8, !tbaa !8
  %8 = tail call i64 @strlen(ptr noundef nonnull dereferenceable(1) %7) #7
  %9 = call i32 @ossl_punycode_decode(ptr noundef nonnull %7, i64 noundef %8, ptr noundef nonnull %2, ptr noundef nonnull %3) #6
  %10 = icmp ne i32 %9, 0
  %11 = zext i1 %10 to i32
  %12 = call i32 @test_true(ptr noundef nonnull @.str.5, i32 noundef 161, ptr noundef nonnull @.str.6, i32 noundef %11) #6
  %.not = icmp eq i32 %12, 0
  br i1 %.not, label %24, label %.preheader

.preheader:                                       ; preds = %1, %16
  %.011 = phi i64 [ %17, %16 ], [ 0, %1 ]
  %13 = getelementptr inbounds nuw [50 x i32], ptr %5, i64 0, i64 %.011
  %14 = load i32, ptr %13, align 4, !tbaa !4
  %15 = icmp eq i32 %14, 0
  br i1 %15, label %18, label %16

16:                                               ; preds = %.preheader
  %17 = add nuw nsw i64 %.011, 1
  %exitcond.not = icmp eq i64 %17, 50
  br i1 %exitcond.not, label %18, label %.preheader, !llvm.loop !12

18:                                               ; preds = %.preheader, %16
  %.0.lcssa = phi i64 [ %.011, %.preheader ], [ 50, %16 ]
  %19 = load i32, ptr %3, align 4, !tbaa !4
  %20 = zext i32 %19 to i64
  %21 = shl nuw nsw i64 %20, 2
  %22 = shl i64 %.0.lcssa, 2
  %23 = call i32 @test_mem_eq(ptr noundef nonnull @.str.5, i32 noundef 167, ptr noundef nonnull @.str.7, ptr noundef nonnull @.str.8, ptr noundef nonnull %2, i64 noundef %21, ptr noundef nonnull %5, i64 noundef %22) #6
  %.not10 = icmp ne i32 %23, 0
  %. = zext i1 %.not10 to i32
  br label %24

24:                                               ; preds = %18, %1
  %.09 = phi i32 [ 0, %1 ], [ %., %18 ]
  call void @llvm.lifetime.end.p0(i64 4, ptr nonnull %3) #6
  call void @llvm.lifetime.end.p0(i64 200, ptr nonnull %2) #6
  ret i32 %.09
}